target datalayout = "e-m:e-p270:32:32-p271:32:32-p272:64:64-i64:64-i128:128-f80:128-n8:16:32:64-S128"
target triple = "x86_64-pc-linux-gnu"

%struct.pg_conn = type { ptr, ptr, ptr, ptr, ptr, ptr, ptr, ptr, ptr, ptr, ptr, ptr, ptr, ptr, ptr, ptr, ptr, ptr, ptr, ptr, ptr, ptr, ptr, ptr, ptr, ptr, ptr, ptr, ptr, ptr, ptr, ptr, ptr, ptr, ptr, ptr, ptr, ptr, ptr, ptr, ptr, ptr, ptr, i8, ptr, i32, %struct.PGNoticeHooks, ptr, i32, i32, i32, i32, i32, [6 x i8], i8, i8, i32, i8, i8, i32, i8, i32, ptr, ptr, i32, i32, ptr, ptr, ptr, ptr, ptr, i32, %struct.SockAddr, %struct.SockAddr, i32, i32, i8, i8, i8, i8, i8, i8, ptr, i8, i32, [1 x ptr], i8, i8, ptr, ptr, i32, i32, i32, i8, i8, i32, i32, ptr, i8, i64, ptr, i64, ptr, i32, i32, ptr, i32, i8, i32, i32, i32, i32, ptr, %struct.pg_prng_state, ptr, i32, i32, i32, i32, ptr, i32, i32, i32, i32, ptr, i32, ptr, i8, ptr, ptr, ptr, i32, i8, i8, i8, i8, i8, i8, i8, i8, %struct.PQExpBufferData, i32, %struct.PQExpBufferData }
%struct.PGNoticeHooks = type { ptr, ptr, ptr, ptr }
%struct.SockAddr = type { %struct.sockaddr_storage, i32 }
%struct.sockaddr_storage = type { i16, [118 x i8], i64 }
%struct.pg_prng_state = type { i64, i64 }
%struct.PQExpBufferData = type { ptr, i64, i64 }
%struct.pg_result = type { i32, i32, ptr, ptr, i32, i32, ptr, i32, [64 x i8], i32, %struct.PGNoticeHooks, ptr, i32, i32, ptr, ptr, ptr, [1 x i8], ptr, i32, i32, i64 }
%struct.PGcmdQueueEntry = type { i32, ptr, ptr }

@.str.30 = private unnamed_addr constant [20 x i8] c"no COPY in progress\00", align 1
@.str.31 = private unnamed_addr constant [3 x i8] c"%s\00", align 1

; Function Attrs: nounwind uwtable
define i32 @pqEndcopy3(ptr noundef %0) #0 {
  %2 = alloca i32, align 4
  %3 = alloca ptr, align 8
  %4 = alloca ptr, align 8
  %5 = alloca i32, align 4
  %6 = alloca i8, align 1
  store ptr %0, ptr %3, align 8
  call void @llvm.lifetime.start.p0(i64 8, ptr %4) #11
  %7 = load ptr, ptr %3, align 8
  %8 = getelementptr inbounds nuw %struct.pg_conn, ptr %7, i32 0, i32 51
  %9 = load i32, ptr %8, align 4
  %10 = icmp ne i32 %9, 4
  br i1 %10, label %11, label %23

11:                                               ; preds = %1
  %12 = load ptr, ptr %3, align 8
  %13 = getelementptr inbounds nuw %struct.pg_conn, ptr %12, i32 0, i32 51
  %14 = load i32, ptr %13, align 4
  %15 = icmp ne i32 %14, 5
  br i1 %15, label %16, label %23

16:                                               ; preds = %11
  %17 = load ptr, ptr %3, align 8
  %18 = getelementptr inbounds nuw %struct.pg_conn, ptr %17, i32 0, i32 51
  %19 = load i32, ptr %18, align 4
  %20 = icmp ne i32 %19, 6
  br i1 %20, label %21, label %23

21:                                               ; preds = %16
  %22 = load ptr, ptr %3, align 8
  call void (ptr, ptr, ...) @libpq_append_conn_error(ptr noundef %22, ptr noundef @.str.30)
  store i32 1, ptr %2, align 4
  store i32 1, ptr %5, align 4
  br label %151

23:                                               ; preds = %16, %11, %1
  %24 = load ptr, ptr %3, align 8
  %25 = getelementptr inbounds nuw %struct.pg_conn, ptr %24, i32 0, i32 51
  %26 = load i32, ptr %25, align 4
  %27 = icmp eq i32 %26, 4
  br i1 %27, label %33, label %28

28:                                               ; preds = %23
  %29 = load ptr, ptr %3, align 8
  %30 = getelementptr inbounds nuw %struct.pg_conn, ptr %29, i32 0, i32 51
  %31 = load i32, ptr %30, align 4
  %32 = icmp eq i32 %31, 6
  br i1 %32, label %33, label %65

33:                                               ; preds = %28, %23
  %34 = load ptr, ptr %3, align 8
  %35 = call i32 @pqPutMsgStart(i8 noundef signext 99, ptr noundef %34)
  %36 = icmp slt i32 %35, 0
  br i1 %36, label %41, label %37

37:                                               ; preds = %33
  %38 = load ptr, ptr %3, align 8
  %39 = call i32 @pqPutMsgEnd(ptr noundef %38)
  %40 = icmp slt i32 %39, 0
  br i1 %40, label %41, label %42

41:                                               ; preds = %37, %33
  store i32 1, ptr %2, align 4
  store i32 1, ptr %5, align 4
  br label %151

42:                                               ; preds = %37
  %43 = load ptr, ptr %3, align 8
  %44 = getelementptr inbounds nuw %struct.pg_conn, ptr %43, i32 0, i32 68
  %45 = load ptr, ptr %44, align 8
  %46 = icmp ne ptr %45, null
  br i1 %46, label %47, label %64

47:                                               ; preds = %42
  %48 = load ptr, ptr %3, align 8
  %49 = getelementptr inbounds nuw %struct.pg_conn, ptr %48, i32 0, i32 68
  %50 = load ptr, ptr %49, align 8
  %51 = getelementptr inbounds nuw %struct.PGcmdQueueEntry, ptr %50, i32 0, i32 0
  %52 = load i32, ptr %51, align 8
  %53 = icmp ne i32 %52, 0
  br i1 %53, label %54, label %64

54:                                               ; preds = %47
  %55 = load ptr, ptr %3, align 8
  %56 = call i32 @pqPutMsgStart(i8 noundef signext 83, ptr noundef %55)
  %57 = icmp slt i32 %56, 0
  br i1 %57, label %62, label %58

58:                                               ; preds = %54
  %59 = load ptr, ptr %3, align 8
  %60 = call i32 @pqPutMsgEnd(ptr noundef %59)
  %61 = icmp slt i32 %60, 0
  br i1 %61, label %62, label %63

62:                                               ; preds = %58, %54
  store i32 1, ptr %2, align 4
  store i32 1, ptr %5, align 4
  br label %151

63:                                               ; preds = %58
  br label %64

64:                                               ; preds = %63, %47, %42
  br label %65

65:                                               ; preds = %64, %28
  %66 = load ptr, ptr %3, align 8
  %67 = call i32 @pqFlush(ptr noundef %66)
  %68 = icmp ne i32 %67, 0
  br i1 %68, label %69, label %75

69:                                               ; preds = %65
  %70 = load ptr, ptr %3, align 8
  %71 = getelementptr inbounds nuw %struct.pg_conn, ptr %70, i32 0, i32 55
  %72 = load i8, ptr %71, align 1, !range !3, !noundef !4
  %73 = trunc i8 %72 to i1
  br i1 %73, label %74, label %75

74:                                               ; preds = %69
  store i32 1, ptr %2, align 4
  store i32 1, ptr %5, align 4
  br label %151

75:                                               ; preds = %69, %65
  %76 = load ptr, ptr %3, align 8
  %77 = getelementptr inbounds nuw %struct.pg_conn, ptr %76, i32 0, i32 51
  store i32 1, ptr %77, align 4
  %78 = load ptr, ptr %3, align 8
  %79 = getelementptr inbounds nuw %struct.pg_conn, ptr %78, i32 0, i32 55
  %80 = load i8, ptr %79, align 1, !range !3, !noundef !4
  %81 = trunc i8 %80 to i1
  br i1 %81, label %82, label %87

82:                                               ; preds = %75
  %83 = load ptr, ptr %3, align 8
  %84 = call i32 @PQisBusy(ptr noundef %83)
  %85 = icmp ne i32 %84, 0
  br i1 %85, label %86, label %87

86:                                               ; preds = %82
  store i32 1, ptr %2, align 4
  store i32 1, ptr %5, align 4
  br label %151

87:                                               ; preds = %82, %75
  %88 = load ptr, ptr %3, align 8
  %89 = call ptr @PQgetResult(ptr noundef %88)
  store ptr %89, ptr %4, align 8
  %90 = load ptr, ptr %4, align 8
  %91 = icmp ne ptr %90, null
  br i1 %91, label %92, label %99

92:                                               ; preds = %87
  %93 = load ptr, ptr %4, align 8
  %94 = getelementptr inbounds nuw %struct.pg_result, ptr %93, i32 0, i32 7
  %95 = load i32, ptr %94, align 8
  %96 = icmp eq i32 %95, 1
  br i1 %96, label %97, label %99

97:                                               ; preds = %92
  %98 = load ptr, ptr %4, align 8
  call void @PQclear(ptr noundef %98)
  store i32 0, ptr %2, align 4
  store i32 1, ptr %5, align 4
  br label %151

99:                                               ; preds = %92, %87
  %100 = load ptr, ptr %3, align 8
  %101 = getelementptr inbounds nuw %struct.pg_conn, ptr %100, i32 0, i32 140
  %102 = getelementptr inbounds nuw %struct.PQExpBufferData, ptr %101, i32 0, i32 1
  %103 = load i64, ptr %102, align 8
  %104 = icmp ugt i64 %103, 0
  br i1 %104, label %105, label %149

105:                                              ; preds = %99
  call void @llvm.lifetime.start.p0(i64 1, ptr %6) #11
  %106 = load ptr, ptr %3, align 8
  %107 = getelementptr inbounds nuw %struct.pg_conn, ptr %106, i32 0, i32 140
  %108 = getelementptr inbounds nuw %struct.PQExpBufferData, ptr %107, i32 0, i32 0
  %109 = load ptr, ptr %108, align 8
  %110 = load ptr, ptr %3, align 8
  %111 = getelementptr inbounds nuw %struct.pg_conn, ptr %110, i32 0, i32 140
  %112 = getelementptr inbounds nuw %struct.PQExpBufferData, ptr %111, i32 0, i32 1
  %113 = load i64, ptr %112, align 8
  %114 = sub i64 %113, 1
  %115 = getelementptr inbounds nuw i8, ptr %109, i64 %114
  %116 = load i8, ptr %115, align 1
  store i8 %116, ptr %6, align 1
  %117 = load i8, ptr %6, align 1
  %118 = sext i8 %117 to i32
  %119 = icmp eq i32 %118, 10
  br i1 %119, label %120, label %131

120:                                              ; preds = %105
  %121 = load ptr, ptr %3, align 8
  %122 = getelementptr inbounds nuw %struct.pg_conn, ptr %121, i32 0, i32 140
  %123 = getelementptr inbounds nuw %struct.PQExpBufferData, ptr %122, i32 0, i32 0
  %124 = load ptr, ptr %123, align 8
  %125 = load ptr, ptr %3, align 8
  %126 = getelementptr inbounds nuw %struct.pg_conn, ptr %125, i32 0, i32 140
  %127 = getelementptr inbounds nuw %struct.PQExpBufferData, ptr %126, i32 0, i32 1
  %128 = load i64, ptr %127, align 8
  %129 = sub i64 %128, 1
  %130 = getelementptr inbounds nuw i8, ptr %124, i64 %129
  store i8 0, ptr %130, align 1
  br label %131

131:                                              ; preds = %120, %105
  %132 = load ptr, ptr %3, align 8
  %133 = getelementptr inbounds nuw %struct.pg_conn, ptr %132, i32 0, i32 46
  %134 = load ptr, ptr %3, align 8
  %135 = getelementptr inbounds nuw %struct.pg_conn, ptr %134, i32 0, i32 140
  %136 = getelementptr inbounds nuw %struct.PQExpBufferData, ptr %135, i32 0, i32 0
  %137 = load ptr, ptr %136, align 8
  call void (ptr, ptr, ...) @pqInternalNotice(ptr noundef %133, ptr noundef @.str.31, ptr noundef %137)
  %138 = load i8, ptr %6, align 1
  %139 = load ptr, ptr %3, align 8
  %140 = getelementptr inbounds nuw %struct.pg_conn, ptr %139, i32 0, i32 140
  %141 = getelementptr inbounds nuw %struct.PQExpBufferData, ptr %140, i32 0, i32 0
  %142 = load ptr, ptr %141, align 8
  %143 = load ptr, ptr %3, align 8
  %144 = getelementptr inbounds nuw %struct.pg_conn, ptr %143, i32 0, i32 140
  %145 = getelementptr inbounds nuw %struct.PQExpBufferData, ptr %144, i32 0, i32 1
  %146 = load i64, ptr %145, align 8
  %147 = sub i64 %146, 1
  %148 = getelementptr inbounds nuw i8, ptr %142, i64 %147
  store i8 %138, ptr %148, align 1
  call void @llvm.lifetime.end.p0(i64 1, ptr %6) #11
  br label %149

149:                                              ; preds = %131, %99
  %150 = load ptr, ptr %4, align 8
  call void @PQclear(ptr noundef %150)
  store i32 1, ptr %2, align 4
  store i32 1, ptr %5, align 4
  br label %151

151:                                              ; preds = %149, %97, %86, %74, %62, %41, %21
  call void @llvm.lifetime.end.p0(i64 8, ptr %4) #11
  %152 = load i32, ptr %2, align 4
  ret i32 %152
}