; Function Attrs: nounwind uwtable
define range(i32 0, 2) i32 @pqEndcopy3(ptr noundef %0) local_unnamed_addr #0 {
  %2 = getelementptr inbounds nuw i8, ptr %0, i64 420
  %3 = load i32, ptr %2, align 4
  %.off = add i32 %3, -4
  %switch = icmp ult i32 %.off, 3
  br i1 %switch, label %5, label %4

4:                                                ; preds = %1
  tail call void (ptr, ptr, ...) @libpq_append_conn_error(ptr noundef nonnull %0, ptr noundef nonnull @.str.30) #16
  br label %57

5:                                                ; preds = %1
  switch i32 %3, label %23 [
    i32 4, label %6
    i32 6, label %6
  ]

6:                                                ; preds = %5, %5
  %7 = tail call i32 @pqPutMsgStart(i8 noundef signext 99, ptr noundef nonnull %0) #16
  %8 = icmp slt i32 %7, 0
  br i1 %8, label %57, label %9

9:                                                ; preds = %6
  %10 = tail call i32 @pqPutMsgEnd(ptr noundef nonnull %0) #16
  %11 = icmp slt i32 %10, 0
  br i1 %11, label %57, label %12

12:                                               ; preds = %9
  %13 = getelementptr inbounds nuw i8, ptr %0, i64 496
  %14 = load ptr, ptr %13, align 8
  %.not40 = icmp eq ptr %14, null
  br i1 %.not40, label %23, label %15

15:                                               ; preds = %12
  %16 = load i32, ptr %14, align 8
  %.not41 = icmp eq i32 %16, 0
  br i1 %.not41, label %23, label %17

17:                                               ; preds = %15
  %18 = tail call i32 @pqPutMsgStart(i8 noundef signext 83, ptr noundef nonnull %0) #16
  %19 = icmp slt i32 %18, 0
  br i1 %19, label %57, label %20

20:                                               ; preds = %17
  %21 = tail call i32 @pqPutMsgEnd(ptr noundef nonnull %0) #16
  %22 = icmp slt i32 %21, 0
  br i1 %22, label %57, label %23

23:                                               ; preds = %5, %12, %15, %20
  %24 = tail call i32 @pqFlush(ptr noundef nonnull %0) #16
  %.not42 = icmp eq i32 %24, 0
  %.phi.trans.insert = getelementptr inbounds nuw i8, ptr %0, i64 435
  %.pre = load i8, ptr %.phi.trans.insert, align 1, !range !3
  br i1 %.not42, label %27, label %25

25:                                               ; preds = %23
  %26 = trunc nuw i8 %.pre to i1
  br i1 %26, label %57, label %.thread

.thread:                                          ; preds = %25
  store i32 1, ptr %2, align 4
  br label %31

27:                                               ; preds = %23
  store i32 1, ptr %2, align 4
  %28 = trunc nuw i8 %.pre to i1
  br i1 %28, label %29, label %31

29:                                               ; preds = %27
  %30 = tail call i32 @PQisBusy(ptr noundef nonnull %0) #16
  %.not43 = icmp eq i32 %30, 0
  br i1 %.not43, label %31, label %57

31:                                               ; preds = %.thread, %29, %27
  %32 = tail call ptr @PQgetResult(ptr noundef nonnull %0) #16
  %.not44 = icmp eq ptr %32, null
  br i1 %.not44, label %38, label %33

33:                                               ; preds = %31
  %34 = getelementptr inbounds nuw i8, ptr %32, i64 40
  %35 = load i32, ptr %34, align 8
  %36 = icmp eq i32 %35, 1
  br i1 %36, label %37, label %38

37:                                               ; preds = %33
  tail call void @PQclear(ptr noundef nonnull %32) #16
  br label %57

38:                                               ; preds = %33, %31
  %39 = getelementptr inbounds nuw i8, ptr %0, i64 1120
  %40 = getelementptr inbounds nuw i8, ptr %0, i64 1128
  %41 = load i64, ptr %40, align 8
  %.not45 = icmp eq i64 %41, 0
  br i1 %.not45, label %56, label %42

42:                                               ; preds = %38
  %43 = load ptr, ptr %39, align 8
  %44 = getelementptr i8, ptr %43, i64 %41
  %45 = getelementptr i8, ptr %44, i64 -1
  %46 = load i8, ptr %45, align 1
  %47 = icmp eq i8 %46, 10
  br i1 %47, label %48, label %49

48:                                               ; preds = %42
  store i8 0, ptr %45, align 1
  %.pre46 = load ptr, ptr %39, align 8
  br label %49

49:                                               ; preds = %48, %42
  %50 = phi ptr [ %.pre46, %48 ], [ %43, %42 ]
  %51 = getelementptr inbounds nuw i8, ptr %0, i64 368
  tail call void (ptr, ptr, ...) @pqInternalNotice(ptr noundef nonnull %51, ptr noundef nonnull @.str.31, ptr noundef %50) #16
  %52 = load ptr, ptr %39, align 8
  %53 = load i64, ptr %40, align 8
  %54 = getelementptr i8, ptr %52, i64 %53
  %55 = getelementptr i8, ptr %54, i64 -1
  store i8 %46, ptr %55, align 1
  br label %56

56:                                               ; preds = %49, %38
  tail call void @PQclear(ptr noundef %32) #16
  br label %57

57:                                               ; preds = %29, %25, %17, %20, %6, %9, %56, %37, %4
  %.0 = phi i32 [ 1, %4 ], [ 0, %37 ], [ 1, %56 ], [ 1, %9 ], [ 1, %6 ], [ 1, %20 ], [ 1, %17 ], [ 1, %25 ], [ 1, %29 ]
  ret i32 %.0
}